target datalayout = "e-m:e-p270:32:32-p271:32:32-p272:64:64-i64:64-i128:128-f80:128-n8:16:32:64-S128"
target triple = "x86_64-pc-linux-gnu"

%struct.MovTextContext = type { ptr, ptr, %struct.HighlightBox, %struct.HilightcolorBox, ptr, %struct.TextWrapBox, %struct.MovTextDefault, i8, i16, i16, i32, i32, i32 }
%struct.HighlightBox = type { i16, i16 }
%struct.HilightcolorBox = type { [4 x i8] }
%struct.TextWrapBox = type { i8 }
%struct.MovTextDefault = type { %struct.StyleBox, ptr, i32, i8, i32 }
%struct.StyleBox = type { i16, i16, i8, i8, i8, i8, i32, i8, i8, i16 }
%struct.FontRecord = type { i16, ptr }

; Function Attrs: nounwind uwtable
define internal void @mov_text_cleanup_ftab(ptr noundef %0) #1 {
  %2 = alloca ptr, align 8
  %3 = alloca i32, align 4
  store ptr %0, ptr %2, align 8, !tbaa !29
  call void @llvm.lifetime.start.p0(i64 4, ptr %3) #8
  store i32 0, ptr %3, align 4, !tbaa !30
  br label %4

4:                                                ; preds = %20, %1
  %5 = load i32, ptr %3, align 4, !tbaa !30
  %6 = load ptr, ptr %2, align 8, !tbaa !29
  %7 = getelementptr inbounds nuw %struct.MovTextContext, ptr %6, i32 0, i32 9
  %8 = load i16, ptr %7, align 4, !tbaa !78
  %9 = zext i16 %8 to i32
  %10 = icmp ult i32 %5, %9
  br i1 %10, label %12, label %11

11:                                               ; preds = %4
  call void @llvm.lifetime.end.p0(i64 4, ptr %3) #8
  br label %23

12:                                               ; preds = %4
  %13 = load ptr, ptr %2, align 8, !tbaa !29
  %14 = getelementptr inbounds nuw %struct.MovTextContext, ptr %13, i32 0, i32 4
  %15 = load ptr, ptr %14, align 8, !tbaa !79
  %16 = load i32, ptr %3, align 4, !tbaa !30
  %17 = zext i32 %16 to i64
  %18 = getelementptr inbounds nuw %struct.FontRecord, ptr %15, i64 %17
  %19 = getelementptr inbounds nuw %struct.FontRecord, ptr %18, i32 0, i32 1
  call void @av_freep(ptr noundef %19)
  br label %20

20:                                               ; preds = %12
  %21 = load i32, ptr %3, align 4, !tbaa !30
  %22 = add i32 %21, 1
  store i32 %22, ptr %3, align 4, !tbaa !30
  br label %4, !llvm.loop !89

23:                                               ; preds = %11
  %24 = load ptr, ptr %2, align 8, !tbaa !29
  %25 = getelementptr inbounds nuw %struct.MovTextContext, ptr %24, i32 0, i32 4
  call void @av_freep(ptr noundef %25)
  %26 = load ptr, ptr %2, align 8, !tbaa !29
  %27 = getelementptr inbounds nuw %struct.MovTextContext, ptr %26, i32 0, i32 9
  store i16 0, ptr %27, align 4, !tbaa !78
  ret void
}