; Function Attrs: nounwind uwtable
define internal fastcc void @mov_text_cleanup_ftab(ptr noundef %0) unnamed_addr #1 {
  %2 = getelementptr inbounds nuw i8, ptr %0, i64 84
  %3 = load i16, ptr %2, align 4, !tbaa !29
  %.not = icmp eq i16 %3, 0
  br i1 %.not, label %._crit_edge, label %.lr.ph

.lr.ph:                                           ; preds = %1
  %4 = getelementptr inbounds nuw i8, ptr %0, i64 24
  br label %6

._crit_edge:                                      ; preds = %6, %1
  %5 = getelementptr inbounds nuw i8, ptr %0, i64 24
  tail call void @av_freep(ptr noundef nonnull %5) #8
  store i16 0, ptr %2, align 4, !tbaa !29
  ret void

6:                                                ; preds = %.lr.ph, %6
  %indvars.iv = phi i64 [ 0, %.lr.ph ], [ %indvars.iv.next, %6 ]
  %7 = load ptr, ptr %4, align 8, !tbaa !49
  %8 = getelementptr inbounds nuw %struct.FontRecord, ptr %7, i64 %indvars.iv, i32 1
  tail call void @av_freep(ptr noundef nonnull %8) #8
  %indvars.iv.next = add nuw nsw i64 %indvars.iv, 1
  %9 = load i16, ptr %2, align 4, !tbaa !29
  %10 = zext i16 %9 to i64
  %11 = icmp samesign ult i64 %indvars.iv.next, %10
  br i1 %11, label %6, label %._crit_edge, !llvm.loop !53
}